---
triple:          'arm64-apple-darwin'
binary-path:     '/Users/mac/TAO/github/codeforces/2028/output/D_Alice_s_Adventures_in_Cards'
relocations:
  - { offset: 0x1FB72, size: 0x8, addend: 0x0, symName: __ZStL8__ioinit, symObjAddr: 0xA1DF0, symBinAddr: 0x100014010, symSize: 0x0 }
  - { offset: 0x1FFCF, size: 0x8, addend: 0x0, symName: _MOD, symObjAddr: 0x70E0, symBinAddr: 0x100014000, symSize: 0x0 }
  - { offset: 0x1FFE6, size: 0x8, addend: 0x0, symName: _eps, symObjAddr: 0x70E8, symBinAddr: 0x100014008, symSize: 0x0 }
  - { offset: 0x1FFFD, size: 0x8, addend: 0x0, symName: _n, symObjAddr: 0xA1DF8, symBinAddr: 0x100014018, symSize: 0x0 }
  - { offset: 0x20014, size: 0x8, addend: 0x0, symName: __ZL2MA, symObjAddr: 0x70F0, symBinAddr: 0x10000B53C, symSize: 0x0 }
  - { offset: 0x20041, size: 0x8, addend: 0x0, symName: _dat, symObjAddr: 0xA1DFC, symBinAddr: 0x10001401C, symSize: 0x0 }
  - { offset: 0x20058, size: 0x8, addend: 0x0, symName: _ind, symObjAddr: 0x2EBD20, symBinAddr: 0x10025DF40, symSize: 0x0 }
  - { offset: 0x2006F, size: 0x8, addend: 0x0, symName: _end_flag, symObjAddr: 0x535C44, symBinAddr: 0x1004A7E64, symSize: 0x0 }
  - { offset: 0x20086, size: 0x8, addend: 0x0, symName: _cur_max, symObjAddr: 0x535C48, symBinAddr: 0x1004A7E68, symSize: 0x0 }
  - { offset: 0x2009D, size: 0x8, addend: 0x0, symName: _tar, symObjAddr: 0x535C60, symBinAddr: 0x1004A7E80, symSize: 0x0 }
  - { offset: 0x200B4, size: 0x8, addend: 0x0, symName: _vis, symObjAddr: 0x535C78, symBinAddr: 0x1004A7E98, symSize: 0x0 }
  - { offset: 0x202B5, size: 0x8, addend: 0x0, symName: _st, symObjAddr: 0x77FBA0, symBinAddr: 0x1006F1DC0, symSize: 0x0 }
  - { offset: 0x202CC, size: 0x8, addend: 0x0, symName: _ans, symObjAddr: 0x77FBF0, symBinAddr: 0x1006F1E10, symSize: 0x0 }
  - { offset: 0x20616, size: 0x8, addend: 0x0, symName: __ZNSt12_Destroy_auxILb1EE9__destroyIPiEEvT_S3_, symObjAddr: 0x70C4, symBinAddr: 0x10000A4B4, symSize: 0x18 }
  - { offset: 0x2064A, size: 0x8, addend: 0x0, symName: __ZSt8_DestroyIPiEvT_S1_, symObjAddr: 0x709C, symBinAddr: 0x10000A48C, symSize: 0x28 }
  - { offset: 0x206EF, size: 0x8, addend: 0x0, symName: __ZNSt6vectorIiSaIiEED1Ev, symObjAddr: 0x7040, symBinAddr: 0x10000A430, symSize: 0x5C }
  - { offset: 0x20772, size: 0x8, addend: 0x0, symName: __ZNSt5stackISt4pairIiiESt5dequeIS1_SaIS1_EEED1Ev, symObjAddr: 0x7020, symBinAddr: 0x10000A410, symSize: 0x20 }
  - { offset: 0x20798, size: 0x8, addend: 0x0, symName: __ZNSt4pairIiiEaSEOS0_, symObjAddr: 0x6FD8, symBinAddr: 0x10000A3C8, symSize: 0x48 }
  - { offset: 0x207CF, size: 0x8, addend: 0x0, symName: __ZNSt11__copy_moveILb0ELb0ESt26random_access_iterator_tagE12__assign_oneIPSt4pairIiiES5_EEvPT_PT0_, symObjAddr: 0x6FB0, symBinAddr: 0x10000A3A0, symSize: 0x28 }
  - { offset: 0x2081C, size: 0x8, addend: 0x0, symName: __ZNSt20__copy_move_backwardILb1ELb0ESt26random_access_iterator_tagE13__copy_move_bIPSt4pairIiiES5_EET0_T_S7_S6_, symObjAddr: 0x6F34, symBinAddr: 0x10000A324, symSize: 0x7C }
  - { offset: 0x2088B, size: 0x8, addend: 0x0, symName: __ZNSt11__copy_moveILb1ELb0ESt26random_access_iterator_tagE8__copy_mIPSt4pairIiiES5_EET0_T_S7_S6_, symObjAddr: 0x6EB8, symBinAddr: 0x10000A2A8, symSize: 0x7C }
  - { offset: 0x2091E, size: 0x8, addend: 0x0, symName: __ZNKSt13move_iteratorISt15_Deque_iteratorISt4pairIiiERS2_PS2_EE4baseEv, symObjAddr: 0x6E84, symBinAddr: 0x10000A274, symSize: 0x34 }
  - { offset: 0x20944, size: 0x8, addend: 0x0, symName: __ZNSt20__copy_move_backwardILb0ELb1ESt26random_access_iterator_tagE13__copy_move_bIPSt4pairIiiES5_EEPT0_PT_S9_S7_, symObjAddr: 0x6DD8, symBinAddr: 0x10000A1C8, symSize: 0xAC }
  - { offset: 0x209B3, size: 0x8, addend: 0x0, symName: __ZNSt11__copy_moveILb0ELb1ESt26random_access_iterator_tagE8__copy_mIPSt4pairIiiES5_EEPT0_PT_S9_S7_, symObjAddr: 0x6D48, symBinAddr: 0x10000A138, symSize: 0x90 }
  - { offset: 0x20A22, size: 0x8, addend: 0x0, symName: __ZSt23__copy_move_backward_a2ILb1EPSt4pairIiiES2_ET1_T0_S4_S3_, symObjAddr: 0x6D1C, symBinAddr: 0x10000A10C, symSize: 0x2C }
  - { offset: 0x20A8A, size: 0x8, addend: 0x0, symName: __ZSt14__copy_move_a2ILb1EPSt4pairIiiES2_ET1_T0_S4_S3_, symObjAddr: 0x6CF0, symBinAddr: 0x10000A0E0, symSize: 0x2C }
  - { offset: 0x20AF9, size: 0x8, addend: 0x0, symName: __ZSteqISt15_Deque_iteratorISt4pairIiiERS2_PS2_EEbRKSt13move_iteratorIT_ESA_, symObjAddr: 0x6CAC, symBinAddr: 0x10000A09C, symSize: 0x44 }
  - { offset: 0x20B43, size: 0x8, addend: 0x0, symName: __ZNSt4pairIiiEaSERKS0_, symObjAddr: 0x6C74, symBinAddr: 0x10000A064, symSize: 0x38 }
  - { offset: 0x20B7A, size: 0x8, addend: 0x0, symName: __ZSt23__copy_move_backward_a2ILb0EPPSt4pairIiiES3_ET1_T0_S5_S4_, symObjAddr: 0x6C48, symBinAddr: 0x10000A038, symSize: 0x2C }
  - { offset: 0x20BE2, size: 0x8, addend: 0x0, symName: __ZSt14__copy_move_a2ILb0EPPSt4pairIiiES3_ET1_T0_S5_S4_, symObjAddr: 0x6C1C, symBinAddr: 0x10000A00C, symSize: 0x2C }
  - { offset: 0x20C4A, size: 0x8, addend: 0x0, symName: __ZSt23__copy_move_backward_a1ILb1EPSt4pairIiiES2_ET1_T0_S4_S3_, symObjAddr: 0x6BF0, symBinAddr: 0x100009FE0, symSize: 0x2C }
  - { offset: 0x20CB2, size: 0x8, addend: 0x0, symName: __ZSt14__copy_move_a1ILb1EPSt4pairIiiES2_ET1_T0_S4_S3_, symObjAddr: 0x6BC4, symBinAddr: 0x100009FB4, symSize: 0x2C }
  - { offset: 0x20D1A, size: 0x8, addend: 0x0, symName: __ZSt10_ConstructISt4pairIiiEJS1_EEvPT_DpOT0_, symObjAddr: 0x6B7C, symBinAddr: 0x100009F6C, symSize: 0x48 }
  - { offset: 0x20D6A, size: 0x8, addend: 0x0, symName: __ZNKSt13move_iteratorISt15_Deque_iteratorISt4pairIiiERS2_PS2_EEdeEv, symObjAddr: 0x6B60, symBinAddr: 0x100009F50, symSize: 0x1C }
  - { offset: 0x20D94, size: 0x8, addend: 0x0, symName: __ZNSt13move_iteratorISt15_Deque_iteratorISt4pairIiiERS2_PS2_EEppEv, symObjAddr: 0x6B40, symBinAddr: 0x100009F30, symSize: 0x20 }
  - { offset: 0x20DBA, size: 0x8, addend: 0x0, symName: __ZStneISt15_Deque_iteratorISt4pairIiiERS2_PS2_EEbRKSt13move_iteratorIT_ESA_, symObjAddr: 0x6B14, symBinAddr: 0x100009F04, symSize: 0x2C }
  - { offset: 0x20DFE, size: 0x8, addend: 0x0, symName: __ZNSt11__copy_moveILb0ELb0ESt26random_access_iterator_tagE8__copy_mIPSt4pairIiiES5_EET0_T_S7_S6_, symObjAddr: 0x6AA0, symBinAddr: 0x100009E90, symSize: 0x74 }
  - { offset: 0x20E8D, size: 0x8, addend: 0x0, symName: __ZSt23__copy_move_backward_a1ILb0EPPSt4pairIiiES3_ET1_T0_S5_S4_, symObjAddr: 0x6A74, symBinAddr: 0x100009E64, symSize: 0x2C }
  - { offset: 0x20EF5, size: 0x8, addend: 0x0, symName: __ZSt12__niter_wrapIPPSt4pairIiiEET_RKS4_S4_, symObjAddr: 0x6A5C, symBinAddr: 0x100009E4C, symSize: 0x18 }
  - { offset: 0x20F31, size: 0x8, addend: 0x0, symName: __ZSt14__copy_move_a1ILb0EPPSt4pairIiiES3_ET1_T0_S5_S4_, symObjAddr: 0x6A30, symBinAddr: 0x100009E20, symSize: 0x2C }
  - { offset: 0x20F99, size: 0x8, addend: 0x0, symName: __ZSt12__niter_baseIPPSt4pairIiiEET_S4_, symObjAddr: 0x6A1C, symBinAddr: 0x100009E0C, symSize: 0x14 }
  - { offset: 0x20FCC, size: 0x8, addend: 0x0, symName: __ZSt9__fill_a1IPiiEN9__gnu_cxx11__enable_ifIXsrSt11__is_scalarIT0_E7__valueEvE6__typeET_S8_RKS4_, symObjAddr: 0x69C4, symBinAddr: 0x100009DB4, symSize: 0x58 }
  - { offset: 0x2103B, size: 0x8, addend: 0x0, symName: __ZSt23__copy_move_backward_a1ILb1EPSt4pairIiiES1_EN9__gnu_cxx11__enable_ifIXsrSt23__is_random_access_iterIT0_NSt15iterator_traitsIS6_E17iterator_categoryEE7__valueESt15_Deque_iteratorIT1_RSC_PSC_EE6__typeES6_S6_SF_, symObjAddr: 0x68A4, symBinAddr: 0x100009C94, symSize: 0x120 }
  - { offset: 0x2110D, size: 0x8, addend: 0x0, symName: __ZSt14__copy_move_a1ILb1EPSt4pairIiiES1_EN9__gnu_cxx11__enable_ifIXsrSt23__is_random_access_iterIT0_NSt15iterator_traitsIS6_E17iterator_categoryEE7__valueESt15_Deque_iteratorIT1_RSC_PSC_EE6__typeES6_S6_SF_, symObjAddr: 0x67C4, symBinAddr: 0x100009BB4, symSize: 0xE0 }
  - { offset: 0x211BD, size: 0x8, addend: 0x0, symName: __ZSt16__do_uninit_copyISt13move_iteratorISt15_Deque_iteratorISt4pairIiiERS3_PS3_EES6_ET0_T_S9_S8_, symObjAddr: 0x66FC, symBinAddr: 0x100009AEC, symSize: 0xC8 }
  - { offset: 0x21235, size: 0x8, addend: 0x0, symName: __ZSteqRKSt15_Deque_iteratorISt4pairIiiERKS1_PS2_ES7_, symObjAddr: 0x66CC, symBinAddr: 0x100009ABC, symSize: 0x30 }
  - { offset: 0x21270, size: 0x8, addend: 0x0, symName: __ZSt14__copy_move_a2ILb0EPSt4pairIiiES2_ET1_T0_S4_S3_, symObjAddr: 0x66A0, symBinAddr: 0x100009A90, symSize: 0x2C }
  - { offset: 0x212D8, size: 0x8, addend: 0x0, symName: __ZSt22__copy_move_backward_aILb0EPPSt4pairIiiES3_ET1_T0_S5_S4_, symObjAddr: 0x6640, symBinAddr: 0x100009A30, symSize: 0x60 }
  - { offset: 0x21340, size: 0x8, addend: 0x0, symName: __ZSt13__copy_move_aILb0EPPSt4pairIiiES3_ET1_T0_S5_S4_, symObjAddr: 0x65E0, symBinAddr: 0x1000099D0, symSize: 0x60 }
  - { offset: 0x213A8, size: 0x8, addend: 0x0, symName: __ZSt12__miter_baseIPPSt4pairIiiEET_S4_, symObjAddr: 0x65CC, symBinAddr: 0x1000099BC, symSize: 0x14 }
  - { offset: 0x213DB, size: 0x8, addend: 0x0, symName: __ZSt8__fill_aIPiiEvT_S1_RKT0_, symObjAddr: 0x659C, symBinAddr: 0x10000998C, symSize: 0x30 }
  - { offset: 0x2144F, size: 0x8, addend: 0x0, symName: __ZSt24__copy_move_backward_ditILb1ESt4pairIiiERS1_PS1_St15_Deque_iteratorIS1_S2_S3_EET3_S4_IT0_T1_T2_ESA_S6_, symObjAddr: 0x6404, symBinAddr: 0x1000097F4, symSize: 0x198 }
  - { offset: 0x214F3, size: 0x8, addend: 0x0, symName: __ZNSt12_Destroy_auxILb1EE9__destroyISt15_Deque_iteratorISt4pairIiiERS4_PS4_EEEvT_S8_, symObjAddr: 0x63EC, symBinAddr: 0x1000097DC, symSize: 0x18 }
  - { offset: 0x21529, size: 0x8, addend: 0x0, symName: __ZSt15__copy_move_ditILb1ESt4pairIiiERS1_PS1_St15_Deque_iteratorIS1_S2_S3_EET3_S4_IT0_T1_T2_ESA_S6_, symObjAddr: 0x6254, symBinAddr: 0x100009644, symSize: 0x198 }
  - { offset: 0x215CD, size: 0x8, addend: 0x0, symName: __ZNSt20__uninitialized_copyILb0EE13__uninit_copyISt13move_iteratorISt15_Deque_iteratorISt4pairIiiERS5_PS5_EES8_EET0_T_SB_SA_, symObjAddr: 0x61F0, symBinAddr: 0x1000095E0, symSize: 0x64 }
  - { offset: 0x2162E, size: 0x8, addend: 0x0, symName: __ZSt10_ConstructISt4pairIiiEJRKS1_EEvPT_DpOT0_, symObjAddr: 0x61A8, symBinAddr: 0x100009598, symSize: 0x48 }
  - { offset: 0x2167E, size: 0x8, addend: 0x0, symName: __ZNKSt15_Deque_iteratorISt4pairIiiERKS1_PS2_EdeEv, symObjAddr: 0x6190, symBinAddr: 0x100009580, symSize: 0x18 }
  - { offset: 0x216A8, size: 0x8, addend: 0x0, symName: __ZNSt15_Deque_iteratorISt4pairIiiERS1_PS1_EppEv, symObjAddr: 0x6124, symBinAddr: 0x100009514, symSize: 0x6C }
  - { offset: 0x216CE, size: 0x8, addend: 0x0, symName: __ZStneRKSt15_Deque_iteratorISt4pairIiiERKS1_PS2_ES7_, symObjAddr: 0x60F8, symBinAddr: 0x1000094E8, symSize: 0x2C }
  - { offset: 0x21709, size: 0x8, addend: 0x0, symName: __ZSt14__copy_move_a1ILb0EPSt4pairIiiES2_ET1_T0_S4_S3_, symObjAddr: 0x60CC, symBinAddr: 0x1000094BC, symSize: 0x2C }
  - { offset: 0x21771, size: 0x8, addend: 0x0, symName: __ZSt13copy_backwardIPPSt4pairIiiES3_ET0_T_S5_S4_, symObjAddr: 0x6084, symBinAddr: 0x100009474, symSize: 0x48 }
  - { offset: 0x217CF, size: 0x8, addend: 0x0, symName: __ZSt4copyIPPSt4pairIiiES3_ET0_T_S5_S4_, symObjAddr: 0x603C, symBinAddr: 0x10000942C, symSize: 0x48 }
  - { offset: 0x2182D, size: 0x8, addend: 0x0, symName: __ZSt10__fill_n_aIPimiET_S1_T0_RKT1_St26random_access_iterator_tag, symObjAddr: 0x5FD8, symBinAddr: 0x1000093C8, symSize: 0x64 }
  - { offset: 0x218B3, size: 0x8, addend: 0x0, symName: __ZSt4swapIiENSt9enable_ifIXsrSt6__and_IJSt6__not_ISt15__is_tuple_likeIT_EESt21is_move_constructibleIS4_ESt18is_move_assignableIS4_EEE5valueEvE4typeERS4_SE_, symObjAddr: 0x5F84, symBinAddr: 0x100009374, symSize: 0x54 }
  - { offset: 0x2190C, size: 0x8, addend: 0x0, symName: __ZSt4moveIRiEONSt16remove_referenceIT_E4typeEOS2_, symObjAddr: 0x5F70, symBinAddr: 0x100009360, symSize: 0x14 }
  - { offset: 0x2193E, size: 0x8, addend: 0x0, symName: __ZSt19__relocate_object_aISt4pairIiiES1_SaIS1_EEvPT_PT0_RT1_, symObjAddr: 0x5EAC, symBinAddr: 0x10000929C, symSize: 0xC4 }
  - { offset: 0x21A70, size: 0x8, addend: 0x0, symName: __ZSt11__addressofISt4pairIiiEEPT_RS2_, symObjAddr: 0x5E98, symBinAddr: 0x100009288, symSize: 0x14 }
  - { offset: 0x21AB8, size: 0x8, addend: 0x0, symName: __ZSt23__copy_move_backward_a1ILb1ESt4pairIiiERS1_PS1_S1_ESt15_Deque_iteratorIT3_RS5_PS5_ES4_IT0_T1_T2_ESC_S8_, symObjAddr: 0x5E34, symBinAddr: 0x100009224, symSize: 0x64 }
  - { offset: 0x21B38, size: 0x8, addend: 0x0, symName: __ZSt8_DestroyISt15_Deque_iteratorISt4pairIiiERS2_PS2_EEvT_S6_, symObjAddr: 0x5DF4, symBinAddr: 0x1000091E4, symSize: 0x40 }
  - { offset: 0x21B82, size: 0x8, addend: 0x0, symName: __ZNSt15_Deque_iteratorISt4pairIiiERKS1_PS2_EppEv, symObjAddr: 0x5D88, symBinAddr: 0x100009178, symSize: 0x6C }
  - { offset: 0x21BA8, size: 0x8, addend: 0x0, symName: __ZSt14__copy_move_a1ILb1ESt4pairIiiERS1_PS1_S1_ESt15_Deque_iteratorIT3_RS5_PS5_ES4_IT0_T1_T2_ESC_S8_, symObjAddr: 0x5D24, symBinAddr: 0x100009114, symSize: 0x64 }
  - { offset: 0x21C28, size: 0x8, addend: 0x0, symName: __ZSt18uninitialized_copyISt13move_iteratorISt15_Deque_iteratorISt4pairIiiERS3_PS3_EES6_ET0_T_S9_S8_, symObjAddr: 0x5CB8, symBinAddr: 0x1000090A8, symSize: 0x6C }
  - { offset: 0x21CD5, size: 0x8, addend: 0x0, symName: __ZNSt13move_iteratorISt15_Deque_iteratorISt4pairIiiERS2_PS2_EEC1ES5_, symObjAddr: 0x5C7C, symBinAddr: 0x10000906C, symSize: 0x3C }
  - { offset: 0x21D08, size: 0x8, addend: 0x0, symName: __ZSt4moveIRSt15_Deque_iteratorISt4pairIiiERS2_PS2_EEONSt16remove_referenceIT_E4typeEOS8_, symObjAddr: 0x5C68, symBinAddr: 0x100009058, symSize: 0x14 }
  - { offset: 0x21D3A, size: 0x8, addend: 0x0, symName: __ZSt16__do_uninit_copyISt15_Deque_iteratorISt4pairIiiERKS2_PS3_ES0_IS2_RS2_PS2_EET0_T_SB_SA_, symObjAddr: 0x5BDC, symBinAddr: 0x100008FCC, symSize: 0x8C }
  - { offset: 0x21DAB, size: 0x8, addend: 0x0, symName: __ZSt14__copy_move_a1ILb0EPSt4pairIiiES1_EN9__gnu_cxx11__enable_ifIXsrSt23__is_random_access_iterIT0_NSt15iterator_traitsIS6_E17iterator_categoryEE7__valueESt15_Deque_iteratorIT1_RSC_PSC_EE6__typeES6_S6_SF_, symObjAddr: 0x5AFC, symBinAddr: 0x100008EEC, symSize: 0xE0 }
  - { offset: 0x21E5F, size: 0x8, addend: 0x0, symName: __ZNSt5dequeISt4pairIiiESaIS1_EE17_M_reallocate_mapEmb, symObjAddr: 0x58B8, symBinAddr: 0x100008CA8, symSize: 0x244 }
  - { offset: 0x21F10, size: 0x8, addend: 0x0, symName: __ZNSt5dequeISt4pairIiiESaIS1_EE11_S_max_sizeERKS2_, symObjAddr: 0x5864, symBinAddr: 0x100008C54, symSize: 0x54 }
  - { offset: 0x21FE1, size: 0x8, addend: 0x0, symName: __ZNSt15__new_allocatorIPSt4pairIiiEE8allocateEmPKv, symObjAddr: 0x57E8, symBinAddr: 0x100008BD8, symSize: 0x7C }
  - { offset: 0x22069, size: 0x8, addend: 0x0, symName: __ZSt6fill_nIPimiET_S1_T0_RKT1_, symObjAddr: 0x57A0, symBinAddr: 0x100008B90, symSize: 0x48 }
  - { offset: 0x220F1, size: 0x8, addend: 0x0, symName: __ZSt10_ConstructIiJEEvPT_DpOT0_, symObjAddr: 0x5774, symBinAddr: 0x100008B64, symSize: 0x2C }
  - { offset: 0x2212D, size: 0x8, addend: 0x0, symName: __ZSt11__addressofIiEPT_RS0_, symObjAddr: 0x5760, symBinAddr: 0x100008B50, symSize: 0x14 }
  - { offset: 0x22163, size: 0x8, addend: 0x0, symName: __ZNSt15__new_allocatorIiE8allocateEmPKv, symObjAddr: 0x56E4, symBinAddr: 0x100008AD4, symSize: 0x7C }
  - { offset: 0x221EB, size: 0x8, addend: 0x0, symName: __ZNSt10_Head_baseILm1ENSt10filesystem7__cxx114path5_List13_Impl_deleterELb1EE7_M_headERS5_, symObjAddr: 0x56D0, symBinAddr: 0x100008AC0, symSize: 0x14 }
  - { offset: 0x22214, size: 0x8, addend: 0x0, symName: __ZNSt10_Head_baseILm0EPNSt10filesystem7__cxx114path5_List5_ImplELb0EE7_M_headERS6_, symObjAddr: 0x56BC, symBinAddr: 0x100008AAC, symSize: 0x14 }
  - { offset: 0x22241, size: 0x8, addend: 0x0, symName: __ZNSt4pairIiiE4swapERS0_, symObjAddr: 0x5678, symBinAddr: 0x100008A68, symSize: 0x44 }
  - { offset: 0x22278, size: 0x8, addend: 0x0, symName: __ZSt14__relocate_a_1IPSt4pairIiiES2_SaIS1_EET0_T_S5_S4_RT1_, symObjAddr: 0x55F4, symBinAddr: 0x1000089E4, symSize: 0x84 }
  - { offset: 0x22301, size: 0x8, addend: 0x0, symName: __ZSt12__niter_baseIPSt4pairIiiEET_S3_, symObjAddr: 0x55E0, symBinAddr: 0x1000089D0, symSize: 0x14 }
  - { offset: 0x22338, size: 0x8, addend: 0x0, symName: __ZNSt15__new_allocatorISt4pairIiiEE8allocateEmPKv, symObjAddr: 0x5564, symBinAddr: 0x100008954, symSize: 0x7C }
  - { offset: 0x223C4, size: 0x8, addend: 0x0, symName: __ZNKSt12_Vector_baseISt4pairIiiESaIS1_EE19_M_get_Tp_allocatorEv, symObjAddr: 0x5550, symBinAddr: 0x100008940, symSize: 0x14 }
  - { offset: 0x223EA, size: 0x8, addend: 0x0, symName: __ZNSt6vectorISt4pairIiiESaIS1_EE11_S_max_sizeERKS2_, symObjAddr: 0x54FC, symBinAddr: 0x1000088EC, symSize: 0x54 }
  - { offset: 0x224A1, size: 0x8, addend: 0x0, symName: __ZSt22__copy_move_backward_aILb1ESt15_Deque_iteratorISt4pairIiiERS2_PS2_ES5_ET1_T0_S7_S6_, symObjAddr: 0x5450, symBinAddr: 0x100008840, symSize: 0xAC }
  - { offset: 0x2254A, size: 0x8, addend: 0x0, symName: __ZSt9__advanceISt15_Deque_iteratorISt4pairIiiERKS2_PS3_ElEvRT_T0_St26random_access_iterator_tag, symObjAddr: 0x5424, symBinAddr: 0x100008814, symSize: 0x2C }
  - { offset: 0x2259E, size: 0x8, addend: 0x0, symName: __ZSt13__copy_move_aILb1ESt15_Deque_iteratorISt4pairIiiERS2_PS2_ES5_ET1_T0_S7_S6_, symObjAddr: 0x5378, symBinAddr: 0x100008768, symSize: 0xAC }
  - { offset: 0x2260C, size: 0x8, addend: 0x0, symName: __ZSt12__miter_baseISt15_Deque_iteratorISt4pairIiiERS2_PS2_EET_S6_, symObjAddr: 0x5348, symBinAddr: 0x100008738, symSize: 0x30 }
  - { offset: 0x22640, size: 0x8, addend: 0x0, symName: __ZSt22__uninitialized_copy_aISt13move_iteratorISt15_Deque_iteratorISt4pairIiiERS3_PS3_EES6_S3_ET0_T_S9_S8_RSaIT1_E, symObjAddr: 0x52E0, symBinAddr: 0x1000086D0, symSize: 0x68 }
  - { offset: 0x226DE, size: 0x8, addend: 0x0, symName: __ZNSt13move_iteratorISt15_Deque_iteratorISt4pairIiiERS2_PS2_EEC1ERKS6_, symObjAddr: 0x52B8, symBinAddr: 0x1000086A8, symSize: 0x28 }
  - { offset: 0x22709, size: 0x8, addend: 0x0, symName: __ZSt18make_move_iteratorISt15_Deque_iteratorISt4pairIiiERS2_PS2_EESt13move_iteratorIT_ES7_, symObjAddr: 0x5270, symBinAddr: 0x100008660, symSize: 0x48 }
  - { offset: 0x22741, size: 0x8, addend: 0x0, symName: __ZNSt15_Deque_iteratorISt4pairIiiERS1_PS1_EpLEl, symObjAddr: 0x5144, symBinAddr: 0x100008534, symSize: 0x12C }
  - { offset: 0x227AA, size: 0x8, addend: 0x0, symName: __ZNSt20__uninitialized_copyILb0EE13__uninit_copyISt15_Deque_iteratorISt4pairIiiERKS4_PS5_ES2_IS4_RS4_PS4_EEET0_T_SD_SC_, symObjAddr: 0x50E0, symBinAddr: 0x1000084D0, symSize: 0x64 }
  - { offset: 0x2280F, size: 0x8, addend: 0x0, symName: __ZNSt15_Deque_iteratorISt4pairIiiERS1_PS1_EmIEl, symObjAddr: 0x50B4, symBinAddr: 0x1000084A4, symSize: 0x2C }
  - { offset: 0x22849, size: 0x8, addend: 0x0, symName: __ZNSt5dequeISt4pairIiiESaIS1_EE23_M_reserve_map_at_frontEm, symObjAddr: 0x5060, symBinAddr: 0x100008450, symSize: 0x54 }
  - { offset: 0x22880, size: 0x8, addend: 0x0, symName: __ZStmiRKSt15_Deque_iteratorISt4pairIiiERKS1_PS2_ES7_, symObjAddr: 0x4FCC, symBinAddr: 0x1000083BC, symSize: 0x94 }
  - { offset: 0x228BB, size: 0x8, addend: 0x0, symName: __ZSt15__copy_move_ditILb0ESt4pairIiiERKS1_PS2_St15_Deque_iteratorIS1_RS1_PS1_EET3_S5_IT0_T1_T2_ESD_S9_, symObjAddr: 0x4E34, symBinAddr: 0x100008224, symSize: 0x198 }
  - { offset: 0x2298B, size: 0x8, addend: 0x0, symName: __ZNSt11_Deque_baseISt4pairIiiESaIS1_EE16_Deque_impl_dataC1EOS4_, symObjAddr: 0x4DD4, symBinAddr: 0x1000081C4, symSize: 0x60 }
  - { offset: 0x229DB, size: 0x8, addend: 0x0, symName: __ZNSt11_Deque_baseISt4pairIiiESaIS1_EE16_Deque_impl_dataC1ERKS4_, symObjAddr: 0x4D60, symBinAddr: 0x100008150, symSize: 0x74 }
  - { offset: 0x22A0D, size: 0x8, addend: 0x0, symName: __ZSt4moveIRNSt11_Deque_baseISt4pairIiiESaIS2_EE16_Deque_impl_dataEEONSt16remove_referenceIT_E4typeEOS8_, symObjAddr: 0x4D4C, symBinAddr: 0x10000813C, symSize: 0x14 }
  - { offset: 0x22A6B, size: 0x8, addend: 0x0, symName: __ZNSt11_Deque_baseISt4pairIiiESaIS1_EE11_Deque_implC1ERKS2_, symObjAddr: 0x4D00, symBinAddr: 0x1000080F0, symSize: 0x4C }
  - { offset: 0x22B0E, size: 0x8, addend: 0x0, symName: __ZNSt5dequeISt4pairIiiESaIS1_EE22_M_reserve_map_at_backEm, symObjAddr: 0x4CA0, symBinAddr: 0x100008090, symSize: 0x60 }
  - { offset: 0x22B49, size: 0x8, addend: 0x0, symName: __ZNKSt5dequeISt4pairIiiESaIS1_EE8max_sizeEv, symObjAddr: 0x4C80, symBinAddr: 0x100008070, symSize: 0x20 }
  - { offset: 0x22BB1, size: 0x8, addend: 0x0, symName: __ZNSt5dequeISt4pairIiiESaIS1_EE14_S_buffer_sizeEv, symObjAddr: 0x4C68, symBinAddr: 0x100008058, symSize: 0x18 }
  - { offset: 0x22BCD, size: 0x8, addend: 0x0, symName: __ZNSt15__new_allocatorIPSt4pairIiiEE10deallocateEPS2_m, symObjAddr: 0x4C38, symBinAddr: 0x100008028, symSize: 0x30 }
  - { offset: 0x22C3B, size: 0x8, addend: 0x0, symName: __ZNSt15__new_allocatorIPSt4pairIiiEED2Ev, symObjAddr: 0x4C24, symBinAddr: 0x100008014, symSize: 0x14 }
  - { offset: 0x22C85, size: 0x8, addend: 0x0, symName: __ZNSt11_Deque_baseISt4pairIiiESaIS1_EE16_M_allocate_nodeEv, symObjAddr: 0x4BE0, symBinAddr: 0x100007FD0, symSize: 0x44 }
  - { offset: 0x22D1A, size: 0x8, addend: 0x0, symName: __ZNSt15_Deque_iteratorISt4pairIiiERS1_PS1_EC1Ev, symObjAddr: 0x4BAC, symBinAddr: 0x100007F9C, symSize: 0x34 }
  - { offset: 0x22D3C, size: 0x8, addend: 0x0, symName: __ZNSt27__uninitialized_default_n_1ILb1EE18__uninit_default_nIPimEET_S3_T0_, symObjAddr: 0x4B48, symBinAddr: 0x100007F38, symSize: 0x64 }
  - { offset: 0x22DB7, size: 0x8, addend: 0x0, symName: __ZNSt15__new_allocatorIiE10deallocateEPim, symObjAddr: 0x4B18, symBinAddr: 0x100007F08, symSize: 0x30 }
  - { offset: 0x22E37, size: 0x8, addend: 0x0, symName: __ZNSt11_Tuple_implILm1EJNSt10filesystem7__cxx114path5_List13_Impl_deleterEEE7_M_headERS5_, symObjAddr: 0x4AFC, symBinAddr: 0x100007EEC, symSize: 0x1C }
  - { offset: 0x22E61, size: 0x8, addend: 0x0, symName: __ZNSt11_Tuple_implILm0EJPNSt10filesystem7__cxx114path5_List5_ImplENS3_13_Impl_deleterEEE7_M_headERS7_, symObjAddr: 0x4AE0, symBinAddr: 0x100007ED0, symSize: 0x1C }
  - { offset: 0x22E8F, size: 0x8, addend: 0x0, symName: __ZNK9__gnu_cxx17__normal_iteratorIPKcNSt7__cxx1112basic_stringIcSt11char_traitsIcESaIcEEEE4baseEv, symObjAddr: 0x4ACC, symBinAddr: 0x100007EBC, symSize: 0x14 }
  - { offset: 0x22EB5, size: 0x8, addend: 0x0, symName: __ZSt4swapIiiENSt9enable_ifIXsrSt6__and_IJSt14__is_swappableIT_ES2_IT0_EEE5valueEvE4typeERSt4pairIS3_S5_ESC_, symObjAddr: 0x4AA4, symBinAddr: 0x100007E94, symSize: 0x28 }
  - { offset: 0x22F02, size: 0x8, addend: 0x0, symName: __ZSt12__relocate_aIPSt4pairIiiES2_SaIS1_EET0_T_S5_S4_RT1_, symObjAddr: 0x4A48, symBinAddr: 0x100007E38, symSize: 0x5C }
  - { offset: 0x22FA2, size: 0x8, addend: 0x0, symName: __ZNKSt6vectorISt4pairIiiESaIS1_EE8max_sizeEv, symObjAddr: 0x4A28, symBinAddr: 0x100007E18, symSize: 0x20 }
  - { offset: 0x22FC8, size: 0x8, addend: 0x0, symName: __ZNSt12_Destroy_auxILb1EE9__destroyIPSt4pairIiiEEEvT_S5_, symObjAddr: 0x4A10, symBinAddr: 0x100007E00, symSize: 0x18 }
  - { offset: 0x23000, size: 0x8, addend: 0x0, symName: __ZNSt15__new_allocatorISt4pairIiiEE10deallocateEPS1_m, symObjAddr: 0x49E0, symBinAddr: 0x100007DD0, symSize: 0x30 }
  - { offset: 0x23072, size: 0x8, addend: 0x0, symName: __ZSt25__uninitialized_copy_moveISt15_Deque_iteratorISt4pairIiiERKS2_PS3_ES0_IS2_RS2_PS2_ES9_SaIS2_EET1_T_SC_T0_SD_SB_RT2_, symObjAddr: 0x48B8, symBinAddr: 0x100007CA8, symSize: 0x128 }
  - { offset: 0x2316A, size: 0x8, addend: 0x0, symName: __ZSt13move_backwardISt15_Deque_iteratorISt4pairIiiERS2_PS2_ES5_ET0_T_S7_S6_, symObjAddr: 0x4834, symBinAddr: 0x100007C24, symSize: 0x84 }
  - { offset: 0x231CE, size: 0x8, addend: 0x0, symName: __ZSt25__uninitialized_move_copyISt15_Deque_iteratorISt4pairIiiERS2_PS2_ES0_IS2_RKS2_PS6_ES5_SaIS2_EET1_T_SC_T0_SD_SB_RT2_, symObjAddr: 0x470C, symBinAddr: 0x100007AFC, symSize: 0x128 }
  - { offset: 0x23307, size: 0x8, addend: 0x0, symName: __ZSt4moveISt15_Deque_iteratorISt4pairIiiERS2_PS2_ES5_ET0_T_S7_S6_, symObjAddr: 0x4688, symBinAddr: 0x100007A78, symSize: 0x84 }
  - { offset: 0x2336B, size: 0x8, addend: 0x0, symName: __ZSt22__uninitialized_move_aISt15_Deque_iteratorISt4pairIiiERS2_PS2_ES5_SaIS2_EET0_T_S8_S7_RT1_, symObjAddr: 0x45FC, symBinAddr: 0x1000079EC, symSize: 0x8C }
  - { offset: 0x233F1, size: 0x8, addend: 0x0, symName: __ZStplRKSt15_Deque_iteratorISt4pairIiiERS1_PS1_El, symObjAddr: 0x45B8, symBinAddr: 0x1000079A8, symSize: 0x44 }
  - { offset: 0x23441, size: 0x8, addend: 0x0, symName: __ZNSt5dequeISt4pairIiiESaIS1_EE23_M_new_elements_at_backEm, symObjAddr: 0x4474, symBinAddr: 0x100007864, symSize: 0x144 }
  - { offset: 0x234BE, size: 0x8, addend: 0x0, symName: __ZSt18uninitialized_copyISt15_Deque_iteratorISt4pairIiiERKS2_PS3_ES0_IS2_RS2_PS2_EET0_T_SB_SA_, symObjAddr: 0x4408, symBinAddr: 0x1000077F8, symSize: 0x6C }
  - { offset: 0x2353F, size: 0x8, addend: 0x0, symName: __ZStmiRKSt15_Deque_iteratorISt4pairIiiERS1_PS1_El, symObjAddr: 0x43C4, symBinAddr: 0x1000077B4, symSize: 0x44 }
  - { offset: 0x2358F, size: 0x8, addend: 0x0, symName: __ZNSt5dequeISt4pairIiiESaIS1_EE24_M_new_elements_at_frontEm, symObjAddr: 0x4278, symBinAddr: 0x100007668, symSize: 0x14C }
  - { offset: 0x23656, size: 0x8, addend: 0x0, symName: __ZNSt15_Deque_iteratorISt4pairIiiERKS1_PS2_E11_M_set_nodeEPPS1_, symObjAddr: 0x421C, symBinAddr: 0x10000760C, symSize: 0x5C }
  - { offset: 0x2368D, size: 0x8, addend: 0x0, symName: __ZNSt15_Deque_iteratorISt4pairIiiERKS1_PS2_E14_S_buffer_sizeEv, symObjAddr: 0x4204, symBinAddr: 0x1000075F4, symSize: 0x18 }
  - { offset: 0x236A5, size: 0x8, addend: 0x0, symName: __ZSt12__niter_wrapISt15_Deque_iteratorISt4pairIiiERS2_PS2_EET_RKS6_S6_, symObjAddr: 0x41D0, symBinAddr: 0x1000075C0, symSize: 0x34 }
  - { offset: 0x236E2, size: 0x8, addend: 0x0, symName: __ZSt14__copy_move_a1ILb0ESt4pairIiiERKS1_PS2_S1_ESt15_Deque_iteratorIT3_RS6_PS6_ES5_IT0_T1_T2_ESD_S9_, symObjAddr: 0x416C, symBinAddr: 0x10000755C, symSize: 0x64 }
  - { offset: 0x23762, size: 0x8, addend: 0x0, symName: __ZSt12__niter_baseISt15_Deque_iteratorISt4pairIiiERS2_PS2_EET_S6_, symObjAddr: 0x413C, symBinAddr: 0x10000752C, symSize: 0x30 }
  - { offset: 0x23796, size: 0x8, addend: 0x0, symName: __ZSt12__niter_baseISt15_Deque_iteratorISt4pairIiiERKS2_PS3_EET_S7_, symObjAddr: 0x410C, symBinAddr: 0x1000074FC, symSize: 0x30 }
  - { offset: 0x237CA, size: 0x8, addend: 0x0, symName: __ZNSt15_Deque_iteratorISt4pairIiiERS1_PS1_E14_S_buffer_sizeEv, symObjAddr: 0x40F4, symBinAddr: 0x1000074E4, symSize: 0x18 }
  - { offset: 0x237E2, size: 0x8, addend: 0x0, symName: __ZSt4swapINSt11_Deque_baseISt4pairIiiESaIS2_EE16_Deque_impl_dataEENSt9enable_ifIXsrSt6__and_IJSt6__not_ISt15__is_tuple_likeIT_EESt21is_move_constructibleISA_ESt18is_move_assignableISA_EEE5valueEvE4typeERSA_SK_, symObjAddr: 0x4054, symBinAddr: 0x100007444, symSize: 0xA0 }
  - { offset: 0x23871, size: 0x8, addend: 0x0, symName: __ZNSt11_Deque_baseISt4pairIiiESaIS1_EEC2ERKS2_m, symObjAddr: 0x4000, symBinAddr: 0x1000073F0, symSize: 0x54 }
  - { offset: 0x238CC, size: 0x8, addend: 0x0, symName: __ZNSt5dequeISt4pairIiiESaIS1_EE16_M_push_back_auxIJS1_EEEvDpOT_, symObjAddr: 0x3EE0, symBinAddr: 0x1000072D0, symSize: 0x120 }
  - { offset: 0x239C4, size: 0x8, addend: 0x0, symName: __ZSt7forwardISt4pairIiiEEOT_RNSt16remove_referenceIS2_E4typeE, symObjAddr: 0x3ECC, symBinAddr: 0x1000072BC, symSize: 0x14 }
  - { offset: 0x23A4C, size: 0x8, addend: 0x0, symName: __ZNKSt11_Deque_baseISt4pairIiiESaIS1_EE20_M_get_map_allocatorEv, symObjAddr: 0x3E84, symBinAddr: 0x100007274, symSize: 0x48 }
  - { offset: 0x23AC6, size: 0x8, addend: 0x0, symName: __ZNSt15_Deque_iteratorISt4pairIiiERS1_PS1_E11_M_set_nodeEPS3_, symObjAddr: 0x3E28, symBinAddr: 0x100007218, symSize: 0x5C }
  - { offset: 0x23B01, size: 0x8, addend: 0x0, symName: __ZNSt11_Deque_baseISt4pairIiiESaIS1_EE15_M_create_nodesEPPS1_S5_, symObjAddr: 0x3D9C, symBinAddr: 0x10000718C, symSize: 0x8C }
  - { offset: 0x23B5E, size: 0x8, addend: 0x0, symName: __ZNSt11_Deque_baseISt4pairIiiESaIS1_EE15_M_allocate_mapEm, symObjAddr: 0x3D1C, symBinAddr: 0x10000710C, symSize: 0x80 }
  - { offset: 0x23C30, size: 0x8, addend: 0x0, symName: __ZNSt11_Deque_baseISt4pairIiiESaIS1_EE16_Deque_impl_dataC1Ev, symObjAddr: 0x3CDC, symBinAddr: 0x1000070CC, symSize: 0x40 }
  - { offset: 0x23C5A, size: 0x8, addend: 0x0, symName: __ZNSt11_Deque_baseISt4pairIiiESaIS1_EE16_Deque_impl_dataC2Ev, symObjAddr: 0x3C9C, symBinAddr: 0x10000708C, symSize: 0x40 }
  - { offset: 0x23C7C, size: 0x8, addend: 0x0, symName: __ZSt25__uninitialized_default_nIPimET_S1_T0_, symObjAddr: 0x3C70, symBinAddr: 0x100007060, symSize: 0x2C }
  - { offset: 0x23D10, size: 0x8, addend: 0x0, symName: __ZNSt12_Vector_baseIiSaIiEE11_M_allocateEm, symObjAddr: 0x3C20, symBinAddr: 0x100007010, symSize: 0x50 }
  - { offset: 0x23D92, size: 0x8, addend: 0x0, symName: __ZNSt12_Vector_baseIiSaIiEE17_Vector_impl_dataC2Ev, symObjAddr: 0x3BF4, symBinAddr: 0x100006FE4, symSize: 0x2C }
  - { offset: 0x23DE5, size: 0x8, addend: 0x0, symName: __ZSt12__get_helperILm1ENSt10filesystem7__cxx114path5_List13_Impl_deleterEJEERT0_RSt11_Tuple_implIXT_EJS5_DpT1_EE, symObjAddr: 0x3BD8, symBinAddr: 0x100006FC8, symSize: 0x1C }
  - { offset: 0x23E27, size: 0x8, addend: 0x0, symName: __ZSt12__get_helperILm0EPNSt10filesystem7__cxx114path5_List5_ImplEJNS3_13_Impl_deleterEEERT0_RSt11_Tuple_implIXT_EJS7_DpT1_EE, symObjAddr: 0x3BBC, symBinAddr: 0x100006FAC, symSize: 0x1C }
  - { offset: 0x23E79, size: 0x8, addend: 0x0, symName: __ZNK9__gnu_cxx17__normal_iteratorIPKcNSt7__cxx1112basic_stringIcSt11char_traitsIcESaIcEEEEdeEv, symObjAddr: 0x3BA4, symBinAddr: 0x100006F94, symSize: 0x18 }
  - { offset: 0x23EA3, size: 0x8, addend: 0x0, symName: __ZN9__gnu_cxx17__normal_iteratorIPKcNSt7__cxx1112basic_stringIcSt11char_traitsIcESaIcEEEEppEv, symObjAddr: 0x3B7C, symBinAddr: 0x100006F6C, symSize: 0x28 }
  - { offset: 0x23ED0, size: 0x8, addend: 0x0, symName: __ZN9__gnu_cxxneIPKcNSt7__cxx1112basic_stringIcSt11char_traitsIcESaIcEEEEEbRKNS_17__normal_iteratorIT_T0_EESE_, symObjAddr: 0x3B38, symBinAddr: 0x100006F28, symSize: 0x44 }
  - { offset: 0x23F23, size: 0x8, addend: 0x0, symName: __ZSt9iter_swapIN9__gnu_cxx17__normal_iteratorIPSt4pairIiiESt6vectorIS3_SaIS3_EEEES8_EvT_T0_, symObjAddr: 0x3AF4, symBinAddr: 0x100006EE4, symSize: 0x44 }
  - { offset: 0x23F75, size: 0x8, addend: 0x0, symName: __ZN9__gnu_cxxltIPSt4pairIiiESt6vectorIS2_SaIS2_EEEEbRKNS_17__normal_iteratorIT_T0_EESC_, symObjAddr: 0x3AB0, symBinAddr: 0x100006EA0, symSize: 0x44 }
  - { offset: 0x23FC6, size: 0x8, addend: 0x0, symName: __ZN9__gnu_cxx17__normal_iteratorIPSt4pairIiiESt6vectorIS2_SaIS2_EEEmmEv, symObjAddr: 0x3A88, symBinAddr: 0x100006E78, symSize: 0x28 }
  - { offset: 0x23FEC, size: 0x8, addend: 0x0, symName: __ZN9__gnu_cxxeqIPSt4pairIiiESt6vectorIS2_SaIS2_EEEEbRKNS_17__normal_iteratorIT_T0_EESC_, symObjAddr: 0x3A44, symBinAddr: 0x100006E34, symSize: 0x44 }
  - { offset: 0x24039, size: 0x8, addend: 0x0, symName: __ZNSt6vectorISt4pairIiiESaIS1_EE11_S_relocateEPS1_S4_S4_RS2_, symObjAddr: 0x3A10, symBinAddr: 0x100006E00, symSize: 0x34 }
  - { offset: 0x24096, size: 0x8, addend: 0x0, symName: __ZSt12__to_addressISt4pairIiiEEPT_S3_, symObjAddr: 0x39FC, symBinAddr: 0x100006DEC, symSize: 0x14 }
  - { offset: 0x240CC, size: 0x8, addend: 0x0, symName: __ZNSt12_Vector_baseISt4pairIiiESaIS1_EE11_M_allocateEm, symObjAddr: 0x39AC, symBinAddr: 0x100006D9C, symSize: 0x50 }
  - { offset: 0x24130, size: 0x8, addend: 0x0, symName: __ZN9__gnu_cxxmiIPSt4pairIiiESt6vectorIS2_SaIS2_EEEENS_17__normal_iteratorIT_T0_E15difference_typeERKSA_SD_, symObjAddr: 0x396C, symBinAddr: 0x100006D5C, symSize: 0x40 }
  - { offset: 0x24181, size: 0x8, addend: 0x0, symName: __ZNKSt6vectorISt4pairIiiESaIS1_EE12_M_check_lenEmPKc, symObjAddr: 0x389C, symBinAddr: 0x100006C8C, symSize: 0xD0 }
  - { offset: 0x24223, size: 0x8, addend: 0x0, symName: __ZSt7forwardIRKSt4pairIiiEEOT_RNSt16remove_referenceIS4_E4typeE, symObjAddr: 0x3888, symBinAddr: 0x100006C78, symSize: 0x14 }
  - { offset: 0x24259, size: 0x8, addend: 0x0, symName: __ZNKSt15_Deque_iteratorISt4pairIiiERS1_PS1_EdeEv, symObjAddr: 0x3870, symBinAddr: 0x100006C60, symSize: 0x18 }
  - { offset: 0x24283, size: 0x8, addend: 0x0, symName: __ZNSt15_Deque_iteratorISt4pairIiiERS1_PS1_EmmEv, symObjAddr: 0x3804, symBinAddr: 0x100006BF4, symSize: 0x6C }
  - { offset: 0x242A9, size: 0x8, addend: 0x0, symName: __ZSteqRKSt15_Deque_iteratorISt4pairIiiERS1_PS1_ES6_, symObjAddr: 0x37D4, symBinAddr: 0x100006BC4, symSize: 0x30 }
  - { offset: 0x242E4, size: 0x8, addend: 0x0, symName: __ZSt8_DestroyIPSt4pairIiiEEvT_S3_, symObjAddr: 0x37AC, symBinAddr: 0x100006B9C, symSize: 0x28 }
  - { offset: 0x24372, size: 0x8, addend: 0x0, symName: __ZNSt5dequeISt4pairIiiESaIS1_EE15_M_pop_back_auxEv, symObjAddr: 0x3714, symBinAddr: 0x100006B04, symSize: 0x98 }
  - { offset: 0x24423, size: 0x8, addend: 0x0, symName: __ZNSt5dequeISt4pairIiiESaIS1_EE13_M_insert_auxISt15_Deque_iteratorIS1_RKS1_PS6_EEEvS5_IS1_RS1_PS1_ET_SD_m, symObjAddr: 0x3134, symBinAddr: 0x100006524, symSize: 0x5E0 }
  - { offset: 0x2466C, size: 0x8, addend: 0x0, symName: __ZNSt5dequeISt4pairIiiESaIS1_EE27_M_reserve_elements_at_backEm, symObjAddr: 0x30B0, symBinAddr: 0x1000064A0, symSize: 0x84 }
  - { offset: 0x246B4, size: 0x8, addend: 0x0, symName: __ZSt22__uninitialized_copy_aISt15_Deque_iteratorISt4pairIiiERKS2_PS3_ES0_IS2_RS2_PS2_ES2_ET0_T_SB_SA_RSaIT1_E, symObjAddr: 0x3048, symBinAddr: 0x100006438, symSize: 0x68 }
  - { offset: 0x2472F, size: 0x8, addend: 0x0, symName: __ZNSt5dequeISt4pairIiiESaIS1_EE28_M_reserve_elements_at_frontEm, symObjAddr: 0x2FC8, symBinAddr: 0x1000063B8, symSize: 0x80 }
  - { offset: 0x247A6, size: 0x8, addend: 0x0, symName: __ZNSt15_Deque_iteratorISt4pairIiiERKS1_PS2_EpLEl, symObjAddr: 0x2E9C, symBinAddr: 0x10000628C, symSize: 0x12C }
  - { offset: 0x2480F, size: 0x8, addend: 0x0, symName: __ZSt13__copy_move_aILb0ESt15_Deque_iteratorISt4pairIiiERKS2_PS3_ES0_IS2_RS2_PS2_EET1_T0_SB_SA_, symObjAddr: 0x2DF0, symBinAddr: 0x1000061E0, symSize: 0xAC }
  - { offset: 0x2487D, size: 0x8, addend: 0x0, symName: __ZSt12__miter_baseISt15_Deque_iteratorISt4pairIiiERKS2_PS3_EET_S7_, symObjAddr: 0x2DC0, symBinAddr: 0x1000061B0, symSize: 0x30 }
  - { offset: 0x248E5, size: 0x8, addend: 0x0, symName: __ZNSt15_Deque_iteratorISt4pairIiiERKS1_PS2_EC1IS_IS1_RS1_PS1_EvEERKT_, symObjAddr: 0x2D68, symBinAddr: 0x100006158, symSize: 0x58 }
  - { offset: 0x24919, size: 0x8, addend: 0x0, symName: __ZStmiRKSt15_Deque_iteratorISt4pairIiiERS1_PS1_ES6_, symObjAddr: 0x2CD4, symBinAddr: 0x1000060C4, symSize: 0x94 }
  - { offset: 0x24958, size: 0x8, addend: 0x0, symName: __ZNSt11_Deque_baseISt4pairIiiESaIS1_EE16_Deque_impl_data12_M_swap_dataERS4_, symObjAddr: 0x2CAC, symBinAddr: 0x10000609C, symSize: 0x28 }
  - { offset: 0x24993, size: 0x8, addend: 0x0, symName: __ZNSt11_Deque_baseISt4pairIiiESaIS1_EE18_M_deallocate_nodeEPS1_, symObjAddr: 0x2C54, symBinAddr: 0x100006044, symSize: 0x58 }
  - { offset: 0x24A04, size: 0x8, addend: 0x0, symName: __ZNSt5dequeISt4pairIiiESaIS1_EE5clearEv, symObjAddr: 0x2C1C, symBinAddr: 0x10000600C, symSize: 0x38 }
  - { offset: 0x24A64, size: 0x8, addend: 0x0, symName: __ZNSt5dequeISt4pairIiiESaIS1_EEC1ERKS3_RKS2_, symObjAddr: 0x2B6C, symBinAddr: 0x100005F5C, symSize: 0xB0 }
  - { offset: 0x24AA9, size: 0x8, addend: 0x0, symName: __ZSt7forwardISaISt4pairIiiEEEOT_RNSt16remove_referenceIS3_E4typeE, symObjAddr: 0x2B58, symBinAddr: 0x100005F48, symSize: 0x14 }
  - { offset: 0x24AE2, size: 0x8, addend: 0x0, symName: __ZSt7forwardIRKSt5dequeISt4pairIiiESaIS2_EEEOT_RNSt16remove_referenceIS7_E4typeE, symObjAddr: 0x2B44, symBinAddr: 0x100005F34, symSize: 0x14 }
  - { offset: 0x24B18, size: 0x8, addend: 0x0, symName: __ZNKSt11_Deque_baseISt4pairIiiESaIS1_EE13get_allocatorEv, symObjAddr: 0x2AF4, symBinAddr: 0x100005EE4, symSize: 0x50 }
  - { offset: 0x24B9B, size: 0x8, addend: 0x0, symName: __ZNSt5dequeISt4pairIiiESaIS1_EE12emplace_backIJS1_EEERS1_DpOT_, symObjAddr: 0x2A18, symBinAddr: 0x100005E08, symSize: 0xDC }
  - { offset: 0x24C4A, size: 0x8, addend: 0x0, symName: __ZNSt5dequeISt4pairIiiESaIS1_EE15_M_destroy_dataESt15_Deque_iteratorIS1_RS1_PS1_ES7_RKS2_, symObjAddr: 0x29F8, symBinAddr: 0x100005DE8, symSize: 0x20 }
  - { offset: 0x24CA5, size: 0x8, addend: 0x0, symName: __ZNSt5dequeISt4pairIiiESaIS1_EE3endEv, symObjAddr: 0x29C0, symBinAddr: 0x100005DB0, symSize: 0x38 }
  - { offset: 0x24CCF, size: 0x8, addend: 0x0, symName: __ZNSt5dequeISt4pairIiiESaIS1_EE5beginEv, symObjAddr: 0x2988, symBinAddr: 0x100005D78, symSize: 0x38 }
  - { offset: 0x24CF9, size: 0x8, addend: 0x0, symName: __ZNSt11_Deque_baseISt4pairIiiESaIS1_EE17_M_deallocate_mapEPPS1_m, symObjAddr: 0x2928, symBinAddr: 0x100005D18, symSize: 0x60 }
  - { offset: 0x24DAA, size: 0x8, addend: 0x0, symName: __ZNSt11_Deque_baseISt4pairIiiESaIS1_EE16_M_destroy_nodesEPPS1_S5_, symObjAddr: 0x28C8, symBinAddr: 0x100005CB8, symSize: 0x60 }
  - { offset: 0x24E1A, size: 0x8, addend: 0x0, symName: __ZNSt11_Deque_baseISt4pairIiiESaIS1_EE17_M_initialize_mapEm, symObjAddr: 0x273C, symBinAddr: 0x100005B2C, symSize: 0x18C }
  - { offset: 0x24EA2, size: 0x8, addend: 0x0, symName: __ZNSt11_Deque_baseISt4pairIiiESaIS1_EE11_Deque_implC1Ev, symObjAddr: 0x2704, symBinAddr: 0x100005AF4, symSize: 0x38 }
  - { offset: 0x24F0B, size: 0x8, addend: 0x0, symName: __ZSt27__uninitialized_default_n_aIPimiET_S1_T0_RSaIT1_E, symObjAddr: 0x26DC, symBinAddr: 0x100005ACC, symSize: 0x28 }
  - { offset: 0x24F6E, size: 0x8, addend: 0x0, symName: __ZNSt12_Vector_baseIiSaIiEE19_M_get_Tp_allocatorEv, symObjAddr: 0x26C8, symBinAddr: 0x100005AB8, symSize: 0x14 }
  - { offset: 0x24F98, size: 0x8, addend: 0x0, symName: __ZNSt12_Vector_baseIiSaIiEE13_M_deallocateEPim, symObjAddr: 0x2670, symBinAddr: 0x100005A60, symSize: 0x58 }
  - { offset: 0x2501A, size: 0x8, addend: 0x0, symName: __ZNSt12_Vector_baseIiSaIiEE17_M_create_storageEm, symObjAddr: 0x2610, symBinAddr: 0x100005A00, symSize: 0x60 }
  - { offset: 0x2507C, size: 0x8, addend: 0x0, symName: __ZNSt12_Vector_baseIiSaIiEE12_Vector_implC1ERKS0_, symObjAddr: 0x25C4, symBinAddr: 0x1000059B4, symSize: 0x4C }
  - { offset: 0x25122, size: 0x8, addend: 0x0, symName: __ZNSt6vectorIiSaIiEE11_S_max_sizeERKS0_, symObjAddr: 0x2570, symBinAddr: 0x100005960, symSize: 0x54 }
  - { offset: 0x251E0, size: 0x8, addend: 0x0, symName: __ZSt3getILm1EJPNSt10filesystem7__cxx114path5_List5_ImplENS3_13_Impl_deleterEEERNSt13tuple_elementIXT_ESt5tupleIJDpT0_EEE4typeERSB_, symObjAddr: 0x2554, symBinAddr: 0x100005944, symSize: 0x1C }
  - { offset: 0x2522B, size: 0x8, addend: 0x0, symName: __ZSt3getILm0EJPNSt10filesystem7__cxx114path5_List5_ImplENS3_13_Impl_deleterEEERNSt13tuple_elementIXT_ESt5tupleIJDpT0_EEE4typeERSB_, symObjAddr: 0x2538, symBinAddr: 0x100005928, symSize: 0x1C }
  - { offset: 0x25276, size: 0x8, addend: 0x0, symName: __ZNSt8__detaillsIcSt11char_traitsIcERKNSt7__cxx1112basic_stringIcS2_SaIcEEEEERSt13basic_ostreamIT_T0_ESD_RKNS_14_Quoted_stringIT1_SA_EE, symObjAddr: 0x23F0, symBinAddr: 0x1000057E0, symSize: 0x148 }
  - { offset: 0x2536E, size: 0x8, addend: 0x0, symName: __ZNSt8__detail14_Quoted_stringIRKNSt7__cxx1112basic_stringIcSt11char_traitsIcESaIcEEEcEC1ES8_cc, symObjAddr: 0x23A0, symBinAddr: 0x100005790, symSize: 0x50 }
  - { offset: 0x253AF, size: 0x8, addend: 0x0, symName: __ZNK9__gnu_cxx17__normal_iteratorIPSt4pairIiiESt6vectorIS2_SaIS2_EEE4baseEv, symObjAddr: 0x238C, symBinAddr: 0x10000577C, symSize: 0x14 }
  - { offset: 0x253D5, size: 0x8, addend: 0x0, symName: __ZSt9__reverseIN9__gnu_cxx17__normal_iteratorIPSt4pairIiiESt6vectorIS3_SaIS3_EEEEEvT_S9_St26random_access_iterator_tag, symObjAddr: 0x2310, symBinAddr: 0x100005700, symSize: 0x7C }
  - { offset: 0x25464, size: 0x8, addend: 0x0, symName: __ZN9__gnu_cxx17__normal_iteratorIPSt4pairIiiESt6vectorIS2_SaIS2_EEEC1ERKS3_, symObjAddr: 0x22E8, symBinAddr: 0x1000056D8, symSize: 0x28 }
  - { offset: 0x25493, size: 0x8, addend: 0x0, symName: __ZNSt6vectorISt4pairIiiESaIS1_EE17_M_realloc_appendIJRKS1_EEEvDpOT_, symObjAddr: 0x212C, symBinAddr: 0x10000551C, symSize: 0x1BC }
  - { offset: 0x25618, size: 0x8, addend: 0x0, symName: __ZZNSt6vectorISt4pairIiiESaIS1_EE17_M_realloc_appendIJRKS1_EEEvDpOT_EN6_GuardC1EPS1_mRS2_, symObjAddr: 0x2088, symBinAddr: 0x100005478, symSize: 0x44 }
  - { offset: 0x2565D, size: 0x8, addend: 0x0, symName: __ZZNSt6vectorISt4pairIiiESaIS1_EE17_M_realloc_appendIJRKS1_EEEvDpOT_EN6_GuardD1Ev, symObjAddr: 0x20CC, symBinAddr: 0x1000054BC, symSize: 0x60 }
  - { offset: 0x25794, size: 0x8, addend: 0x0, symName: __ZNSt5dequeISt4pairIiiESaIS1_EE4backEv, symObjAddr: 0x2054, symBinAddr: 0x100005444, symSize: 0x34 }
  - { offset: 0x257CF, size: 0x8, addend: 0x0, symName: __ZNKSt5dequeISt4pairIiiESaIS1_EE5emptyEv, symObjAddr: 0x2024, symBinAddr: 0x100005414, symSize: 0x30 }
  - { offset: 0x25834, size: 0x8, addend: 0x0, symName: __ZNSt12_Vector_baseISt4pairIiiESaIS1_EE19_M_get_Tp_allocatorEv, symObjAddr: 0x2010, symBinAddr: 0x100005400, symSize: 0x14 }
  - { offset: 0x2585E, size: 0x8, addend: 0x0, symName: __ZNSt12_Vector_baseISt4pairIiiESaIS1_EE13_M_deallocateEPS1_m, symObjAddr: 0x1FB8, symBinAddr: 0x1000053A8, symSize: 0x58 }
  - { offset: 0x25904, size: 0x8, addend: 0x0, symName: __ZNSt15__new_allocatorISt4pairIiiEED2Ev, symObjAddr: 0x1FA4, symBinAddr: 0x100005394, symSize: 0x14 }
  - { offset: 0x25944, size: 0x8, addend: 0x0, symName: __ZNSt12_Vector_baseISt4pairIiiESaIS1_EE17_Vector_impl_dataC2Ev, symObjAddr: 0x1F78, symBinAddr: 0x100005368, symSize: 0x2C }
  - { offset: 0x25980, size: 0x8, addend: 0x0, symName: __ZNSt5dequeISt4pairIiiESaIS1_EE8pop_backEv, symObjAddr: 0x1EF4, symBinAddr: 0x1000052E4, symSize: 0x84 }
  - { offset: 0x25A04, size: 0x8, addend: 0x0, symName: __ZNSt5dequeISt4pairIiiESaIS1_EE19_M_range_insert_auxISt15_Deque_iteratorIS1_RKS1_PS6_EEEvS5_IS1_RS1_PS1_ET_SD_St20forward_iterator_tag, symObjAddr: 0x1C5C, symBinAddr: 0x10000504C, symSize: 0x298 }
  - { offset: 0x25B6F, size: 0x8, addend: 0x0, symName: __ZNSt15_Deque_iteratorISt4pairIiiERKS1_PS2_EC1ERKS5_, symObjAddr: 0x1C04, symBinAddr: 0x100004FF4, symSize: 0x58 }
  - { offset: 0x25B9A, size: 0x8, addend: 0x0, symName: __ZStplRKSt15_Deque_iteratorISt4pairIiiERKS1_PS2_El, symObjAddr: 0x1BC0, symBinAddr: 0x100004FB0, symSize: 0x44 }
  - { offset: 0x25BE6, size: 0x8, addend: 0x0, symName: __ZSt4copyISt15_Deque_iteratorISt4pairIiiERKS2_PS3_ES0_IS2_RS2_PS2_EET0_T_SB_SA_, symObjAddr: 0x1B3C, symBinAddr: 0x100004F2C, symSize: 0x84 }
  - { offset: 0x25C75, size: 0x8, addend: 0x0, symName: __ZNSt15_Deque_iteratorISt4pairIiiERS1_PS1_EC1ERKS4_, symObjAddr: 0x1AE4, symBinAddr: 0x100004ED4, symSize: 0x58 }
  - { offset: 0x25CA4, size: 0x8, addend: 0x0, symName: __ZNKSt5dequeISt4pairIiiESaIS1_EE3endEv, symObjAddr: 0x1AAC, symBinAddr: 0x100004E9C, symSize: 0x38 }
  - { offset: 0x25CCE, size: 0x8, addend: 0x0, symName: __ZNKSt5dequeISt4pairIiiESaIS1_EE5beginEv, symObjAddr: 0x1A74, symBinAddr: 0x100004E64, symSize: 0x38 }
  - { offset: 0x25CF8, size: 0x8, addend: 0x0, symName: __ZNSt5dequeISt4pairIiiESaIS1_EE15_M_erase_at_endESt15_Deque_iteratorIS1_RS1_PS1_E, symObjAddr: 0x19D0, symBinAddr: 0x100004DC0, symSize: 0xA4 }
  - { offset: 0x25D36, size: 0x8, addend: 0x0, symName: __ZNKSt5dequeISt4pairIiiESaIS1_EE4sizeEv, symObjAddr: 0x19A0, symBinAddr: 0x100004D90, symSize: 0x30 }
  - { offset: 0x25D8D, size: 0x8, addend: 0x0, symName: __ZNSt5dequeISt4pairIiiESaIS1_EE14_M_replace_mapIJRKS3_S2_EEEvDpOT_, symObjAddr: 0x18E0, symBinAddr: 0x100004CD0, symSize: 0xC0 }
  - { offset: 0x25DF5, size: 0x8, addend: 0x0, symName: __ZNKSt5dequeISt4pairIiiESaIS1_EE13get_allocatorEv, symObjAddr: 0x18B0, symBinAddr: 0x100004CA0, symSize: 0x30 }
  - { offset: 0x25E31, size: 0x8, addend: 0x0, symName: __ZNKSt11_Deque_baseISt4pairIiiESaIS1_EE19_M_get_Tp_allocatorEv, symObjAddr: 0x189C, symBinAddr: 0x100004C8C, symSize: 0x14 }
  - { offset: 0x25E5B, size: 0x8, addend: 0x0, symName: __ZNSt11_Deque_baseISt4pairIiiESaIS1_EE19_M_get_Tp_allocatorEv, symObjAddr: 0x1888, symBinAddr: 0x100004C78, symSize: 0x14 }
  - { offset: 0x25E85, size: 0x8, addend: 0x0, symName: __ZNSt5dequeISt4pairIiiESaIS1_EE9push_backEOS1_, symObjAddr: 0x1858, symBinAddr: 0x100004C48, symSize: 0x30 }
  - { offset: 0x25EC3, size: 0x8, addend: 0x0, symName: __ZSt4moveIRSt4pairIiiEEONSt16remove_referenceIT_E4typeEOS4_, symObjAddr: 0x1844, symBinAddr: 0x100004C34, symSize: 0x14 }
  - { offset: 0x25F41, size: 0x8, addend: 0x0, symName: __ZNSt4pairIiiEC1IRiS2_Lb1EEEOT_OT0_, symObjAddr: 0x17FC, symBinAddr: 0x100004BEC, symSize: 0x48 }
  - { offset: 0x25F8E, size: 0x8, addend: 0x0, symName: __ZSt7forwardIRiEOT_RNSt16remove_referenceIS1_E4typeE, symObjAddr: 0x17E8, symBinAddr: 0x100004BD8, symSize: 0x14 }
  - { offset: 0x25FE8, size: 0x8, addend: 0x0, symName: __ZNSt5dequeISt4pairIiiESaIS1_EED1Ev, symObjAddr: 0x1780, symBinAddr: 0x100004B70, symSize: 0x68 }
  - { offset: 0x26033, size: 0x8, addend: 0x0, symName: __ZNSt11_Deque_baseISt4pairIiiESaIS1_EED2Ev, symObjAddr: 0x1714, symBinAddr: 0x100004B04, symSize: 0x6C }
  - { offset: 0x26073, size: 0x8, addend: 0x0, symName: __ZNSt11_Deque_baseISt4pairIiiESaIS1_EEC2Ev, symObjAddr: 0x16CC, symBinAddr: 0x100004ABC, symSize: 0x48 }
  - { offset: 0x260C1, size: 0x8, addend: 0x0, symName: __ZNSt11_Deque_baseISt4pairIiiESaIS1_EE11_Deque_implD1Ev, symObjAddr: 0x16A0, symBinAddr: 0x100004A90, symSize: 0x2C }
  - { offset: 0x2610B, size: 0x8, addend: 0x0, symName: __ZNSt6vectorIiSaIiEE21_M_default_initializeEm, symObjAddr: 0x1650, symBinAddr: 0x100004A40, symSize: 0x50 }
  - { offset: 0x2616A, size: 0x8, addend: 0x0, symName: __ZNSt12_Vector_baseIiSaIiEED2Ev, symObjAddr: 0x1600, symBinAddr: 0x1000049F0, symSize: 0x50 }
  - { offset: 0x261C6, size: 0x8, addend: 0x0, symName: __ZNSt12_Vector_baseIiSaIiEEC2EmRKS0_, symObjAddr: 0x15AC, symBinAddr: 0x10000499C, symSize: 0x54 }
  - { offset: 0x26225, size: 0x8, addend: 0x0, symName: __ZNSt12_Vector_baseIiSaIiEE12_Vector_implD1Ev, symObjAddr: 0x1580, symBinAddr: 0x100004970, symSize: 0x2C }
  - { offset: 0x2626A, size: 0x8, addend: 0x0, symName: __ZNSt6vectorIiSaIiEE17_S_check_init_lenEmRKS0_, symObjAddr: 0x14FC, symBinAddr: 0x1000048EC, symSize: 0x84 }
  - { offset: 0x26344, size: 0x8, addend: 0x0, symName: __ZNSt15__new_allocatorIiED2Ev, symObjAddr: 0x14E8, symBinAddr: 0x1000048D8, symSize: 0x14 }
  - { offset: 0x2636A, size: 0x8, addend: 0x0, symName: __ZNSt15__uniq_ptr_implINSt10filesystem7__cxx114path5_List5_ImplENS3_13_Impl_deleterEE10_M_deleterEv, symObjAddr: 0x14CC, symBinAddr: 0x1000048BC, symSize: 0x1C }
  - { offset: 0x26397, size: 0x8, addend: 0x0, symName: __ZSt4moveIRPNSt10filesystem7__cxx114path5_List5_ImplEEONSt16remove_referenceIT_E4typeEOS8_, symObjAddr: 0x14B8, symBinAddr: 0x1000048A8, symSize: 0x14 }
  - { offset: 0x263CD, size: 0x8, addend: 0x0, symName: __ZNSt10unique_ptrINSt10filesystem7__cxx114path5_List5_ImplENS3_13_Impl_deleterEE11get_deleterEv, symObjAddr: 0x149C, symBinAddr: 0x10000488C, symSize: 0x1C }
  - { offset: 0x263F7, size: 0x8, addend: 0x0, symName: __ZNSt15__uniq_ptr_implINSt10filesystem7__cxx114path5_List5_ImplENS3_13_Impl_deleterEE6_M_ptrEv, symObjAddr: 0x1480, symBinAddr: 0x100004870, symSize: 0x1C }
  - { offset: 0x26445, size: 0x8, addend: 0x0, symName: __ZNSt15__new_allocatorIcED2Ev, symObjAddr: 0x146C, symBinAddr: 0x10000485C, symSize: 0x14 }
  - { offset: 0x264A1, size: 0x8, addend: 0x0, symName: __ZNSt10filesystem7__cxx11lsIcSt11char_traitsIcEEERSt13basic_ostreamIT_T0_ES8_RKNS0_4pathE, symObjAddr: 0x13BC, symBinAddr: 0x1000047AC, symSize: 0xB0 }
  - { offset: 0x26576, size: 0x8, addend: 0x0, symName: __ZSt6quotedIcSt11char_traitsIcESaIcEEDaRKNSt7__cxx1112basic_stringIT_T0_T1_EES5_S5_, symObjAddr: 0x1374, symBinAddr: 0x100004764, symSize: 0x48 }
  - { offset: 0x265E1, size: 0x8, addend: 0x0, symName: __ZNK9__gnu_cxx17__normal_iteratorIPSt4pairIiiESt6vectorIS2_SaIS2_EEEdeEv, symObjAddr: 0x135C, symBinAddr: 0x10000474C, symSize: 0x18 }
  - { offset: 0x2660B, size: 0x8, addend: 0x0, symName: __ZN9__gnu_cxx17__normal_iteratorIPSt4pairIiiESt6vectorIS2_SaIS2_EEEppEv, symObjAddr: 0x1334, symBinAddr: 0x100004724, symSize: 0x28 }
  - { offset: 0x26631, size: 0x8, addend: 0x0, symName: __ZN9__gnu_cxxneIPSt4pairIiiESt6vectorIS2_SaIS2_EEEEbRKNS_17__normal_iteratorIT_T0_EESC_, symObjAddr: 0x12F0, symBinAddr: 0x1000046E0, symSize: 0x44 }
  - { offset: 0x2667E, size: 0x8, addend: 0x0, symName: __ZSt7reverseIN9__gnu_cxx17__normal_iteratorIPSt4pairIiiESt6vectorIS3_SaIS3_EEEEEvT_S9_, symObjAddr: 0x12C4, symBinAddr: 0x1000046B4, symSize: 0x2C }
  - { offset: 0x266E7, size: 0x8, addend: 0x0, symName: __ZNSt6vectorISt4pairIiiESaIS1_EE3endEv, symObjAddr: 0x129C, symBinAddr: 0x10000468C, symSize: 0x28 }
  - { offset: 0x26711, size: 0x8, addend: 0x0, symName: __ZNSt6vectorISt4pairIiiESaIS1_EE5beginEv, symObjAddr: 0x1278, symBinAddr: 0x100004668, symSize: 0x24 }
  - { offset: 0x26742, size: 0x8, addend: 0x0, symName: __ZNKSt6vectorISt4pairIiiESaIS1_EE4sizeEv, symObjAddr: 0x1250, symBinAddr: 0x100004640, symSize: 0x28 }
  - { offset: 0x2676C, size: 0x8, addend: 0x0, symName: __ZNSt6vectorISt4pairIiiESaIS1_EE9push_backERKS1_, symObjAddr: 0x1188, symBinAddr: 0x100004578, symSize: 0xC8 }
  - { offset: 0x26813, size: 0x8, addend: 0x0, symName: __ZNSt5stackISt4pairIiiESt5dequeIS1_SaIS1_EEE3topEv, symObjAddr: 0x116C, symBinAddr: 0x10000455C, symSize: 0x1C }
  - { offset: 0x2683D, size: 0x8, addend: 0x0, symName: __ZNKSt5stackISt4pairIiiESt5dequeIS1_SaIS1_EEE5emptyEv, symObjAddr: 0x1150, symBinAddr: 0x100004540, symSize: 0x1C }
  - { offset: 0x2688B, size: 0x8, addend: 0x0, symName: __ZNSt6vectorISt4pairIiiESaIS1_EED1Ev, symObjAddr: 0x10F4, symBinAddr: 0x1000044E4, symSize: 0x5C }
  - { offset: 0x2690B, size: 0x8, addend: 0x0, symName: __ZNSt12_Vector_baseISt4pairIiiESaIS1_EED2Ev, symObjAddr: 0x10A4, symBinAddr: 0x100004494, symSize: 0x50 }
  - { offset: 0x2696B, size: 0x8, addend: 0x0, symName: __ZNSt12_Vector_baseISt4pairIiiESaIS1_EE12_Vector_implC1Ev, symObjAddr: 0x106C, symBinAddr: 0x10000445C, symSize: 0x38 }
  - { offset: 0x269D7, size: 0x8, addend: 0x0, symName: __ZNSt5stackISt4pairIiiESt5dequeIS1_SaIS1_EEE3popEv, symObjAddr: 0x104C, symBinAddr: 0x10000443C, symSize: 0x20 }
  - { offset: 0x26A01, size: 0x8, addend: 0x0, symName: __ZNSt5dequeISt4pairIiiESaIS1_EEaSERKS3_, symObjAddr: 0xDB0, symBinAddr: 0x1000041A0, symSize: 0x29C }
  - { offset: 0x26B78, size: 0x8, addend: 0x0, symName: __ZSt11__addressofIKSt5dequeISt4pairIiiESaIS2_EEEPT_RS6_, symObjAddr: 0xD9C, symBinAddr: 0x10000418C, symSize: 0x14 }
  - { offset: 0x26BAE, size: 0x8, addend: 0x0, symName: __ZNSt5stackISt4pairIiiESt5dequeIS1_SaIS1_EEE4pushEOS1_, symObjAddr: 0xD60, symBinAddr: 0x100004150, symSize: 0x3C }
  - { offset: 0x26BE5, size: 0x8, addend: 0x0, symName: __ZSt9make_pairIRiS0_ESt4pairINSt25__strip_reference_wrapperINSt5decayIT_E4typeEE6__typeENS2_INS3_IT0_E4typeEE6__typeEEOS4_OS9_, symObjAddr: 0xD14, symBinAddr: 0x100004104, symSize: 0x4C }
  - { offset: 0x26C36, size: 0x8, addend: 0x0, symName: __ZNSt6vectorIiSaIiEEixEm, symObjAddr: 0xCEC, symBinAddr: 0x1000040DC, symSize: 0x28 }
  - { offset: 0x26CAA, size: 0x8, addend: 0x0, symName: __ZNSt5stackISt4pairIiiESt5dequeIS1_SaIS1_EEEC1IS4_vEEv, symObjAddr: 0xCB0, symBinAddr: 0x1000040A0, symSize: 0x3C }
  - { offset: 0x26CF8, size: 0x8, addend: 0x0, symName: __ZNSt5dequeISt4pairIiiESaIS1_EEC1Ev, symObjAddr: 0xC90, symBinAddr: 0x100004080, symSize: 0x20 }
  - { offset: 0x26D54, size: 0x8, addend: 0x0, symName: __ZNSt6vectorIiSaIiEEC1EmRKS0_, symObjAddr: 0xC28, symBinAddr: 0x100004018, symSize: 0x68 }
  - { offset: 0x26DAC, size: 0x8, addend: 0x0, symName: __ZNKSt10filesystem7__cxx114path6stringIcSt11char_traitsIcESaIcEEENSt7__cxx1112basic_stringIT_T0_T1_EERKSA_, symObjAddr: 0xBD8, symBinAddr: 0x100003FC8, symSize: 0x50 }
  - { offset: 0x26E37, size: 0x8, addend: 0x0, symName: __ZNSt10unique_ptrINSt10filesystem7__cxx114path5_List5_ImplENS3_13_Impl_deleterEED1Ev, symObjAddr: 0xB70, symBinAddr: 0x100003F60, symSize: 0x68 }
  - { offset: 0x26E8D, size: 0x8, addend: 0x0, symName: __ZSt7forwardIiEOT_RNSt16remove_referenceIS0_E4typeE, symObjAddr: 0xB5C, symBinAddr: 0x100003F4C, symSize: 0x14 }
  - { offset: 0x26EBF, size: 0x8, addend: 0x0, symName: __ZSt3maxImERKT_S2_S2_, symObjAddr: 0xB24, symBinAddr: 0x100003F14, symSize: 0x38 }
  - { offset: 0x26F40, size: 0x8, addend: 0x0, symName: _main, symObjAddr: 0x914, symBinAddr: 0x100003D04, symSize: 0x210 }
  - { offset: 0x26F93, size: 0x8, addend: 0x0, symName: __Z5solvev, symObjAddr: 0x540, symBinAddr: 0x100003930, symSize: 0x3D4 }
  - { offset: 0x27123, size: 0x8, addend: 0x0, symName: __ZNSt6vectorISt4pairIiiESaIS1_EEC1Ev, symObjAddr: 0x520, symBinAddr: 0x100003910, symSize: 0x20 }
  - { offset: 0x27163, size: 0x8, addend: 0x0, symName: __ZNSt12_Vector_baseISt4pairIiiESaIS1_EEC2Ev, symObjAddr: 0x500, symBinAddr: 0x1000038F0, symSize: 0x20 }
  - { offset: 0x271B0, size: 0x8, addend: 0x0, symName: __ZNSt12_Vector_baseISt4pairIiiESaIS1_EE12_Vector_implD1Ev, symObjAddr: 0x4D4, symBinAddr: 0x1000038C4, symSize: 0x2C }
  - { offset: 0x271FC, size: 0x8, addend: 0x0, symName: __Z3dfsii, symObjAddr: 0x190, symBinAddr: 0x100003580, symSize: 0x344 }
  - { offset: 0x272BC, size: 0x8, addend: 0x0, symName: __ZNSt5stackISt4pairIiiESt5dequeIS1_SaIS1_EEEaSERKS5_, symObjAddr: 0x168, symBinAddr: 0x100003558, symSize: 0x28 }
  - { offset: 0x272F6, size: 0x8, addend: 0x0, symName: __Z4to_ci, symObjAddr: 0x118, symBinAddr: 0x100003508, symSize: 0x50 }
  - { offset: 0x27347, size: 0x8, addend: 0x0, symName: __ZNSt10filesystem7__cxx114pathD1Ev, symObjAddr: 0xEC, symBinAddr: 0x1000034DC, symSize: 0x2C }
  - { offset: 0x27391, size: 0x8, addend: 0x0, symName: __ZNSt10filesystem7__cxx114path5_ListD1Ev, symObjAddr: 0xCC, symBinAddr: 0x1000034BC, symSize: 0x20 }
  - { offset: 0x273B3, size: 0x8, addend: 0x0, symName: __ZSt16__deque_buf_sizem, symObjAddr: 0x9C, symBinAddr: 0x10000348C, symSize: 0x30 }
  - { offset: 0x273DC, size: 0x8, addend: 0x0, symName: __ZSt3minIlERKT_S2_S2_, symObjAddr: 0x64, symBinAddr: 0x100003454, symSize: 0x38 }
  - { offset: 0x2741E, size: 0x8, addend: 0x0, symName: __ZSt3minImERKT_S2_S2_, symObjAddr: 0x2C, symBinAddr: 0x10000341C, symSize: 0x38 }
  - { offset: 0x2746B, size: 0x8, addend: 0x0, symName: __ZnwmPv, symObjAddr: 0x14, symBinAddr: 0x100003404, symSize: 0x18 }
  - { offset: 0x2749D, size: 0x8, addend: 0x0, symName: __ZSt17__size_to_integerm, symObjAddr: 0x0, symBinAddr: 0x1000033F0, symSize: 0x14 }
...
